; Function Attrs: mustprogress uwtable
define hidden noundef zeroext i1 @_ZN3euf9ac_plugin9is_subsetERKNS0_10ref_countsERS1_RKNS0_10monomial_tE(ptr noundef nonnull readnone align 8 captures(none) dereferenceable(432) %0, ptr noundef nonnull readonly align 8 captures(none) dereferenceable(16) %1, ptr noundef nonnull align 8 dereferenceable(16) %2, ptr noundef nonnull readonly align 8 captures(none) dereferenceable(24) %3) local_unnamed_addr #3 align 2 {
  tail call void @_ZNK3euf9ac_plugin15init_ref_countsERK10ptr_vectorINS0_4nodeEERNS0_10ref_countsE(ptr nonnull readnone align 8 poison, ptr noundef nonnull readonly align 8 dereferenceable(24) %3, ptr noundef nonnull align 8 dereferenceable(16) %2)
  %.val = load ptr, ptr %2, align 8, !tbaa !98
  %5 = icmp eq ptr %.val, null
  br i1 %5, label %"_Z6all_ofIN3euf9ac_plugin10ref_countsEZNS1_9is_subsetERKS2_RS2_RKNS1_10monomial_tEE3$_0EbRKT_RKT0_.exit", label %_ZNK3euf9ac_plugin10ref_counts3endEv.exit.i

_ZNK3euf9ac_plugin10ref_counts3endEv.exit.i:      ; preds = %4
  %6 = getelementptr inbounds i8, ptr %.val, i64 -4
  %7 = load i32, ptr %6, align 4, !tbaa !109
  %8 = zext i32 %7 to i64
  %9 = getelementptr inbounds nuw i32, ptr %.val, i64 %8
  %.not4.i = icmp eq i32 %7, 0
  br i1 %.not4.i, label %"_Z6all_ofIN3euf9ac_plugin10ref_countsEZNS1_9is_subsetERKS2_RS2_RKNS1_10monomial_tEE3$_0EbRKT_RKT0_.exit", label %.lr.ph.i

.lr.ph.i:                                         ; preds = %_ZNK3euf9ac_plugin10ref_counts3endEv.exit.i
  %10 = getelementptr inbounds nuw i8, ptr %2, i64 8
  %.val.val.i = load ptr, ptr %10, align 8, !tbaa !98
  %11 = icmp eq ptr %.val.val.i, null
  %12 = getelementptr inbounds nuw i8, ptr %1, i64 8
  %13 = load ptr, ptr %12, align 8, !tbaa !98
  %14 = getelementptr inbounds i8, ptr %13, i64 -4
  br i1 %11, label %"_Z6all_ofIN3euf9ac_plugin10ref_countsEZNS1_9is_subsetERKS2_RS2_RKNS1_10monomial_tEE3$_0EbRKT_RKT0_.exit", label %.lr.ph.split.i

.lr.ph.split.i:                                   ; preds = %.lr.ph.i
  %15 = icmp eq ptr %13, null
  %16 = getelementptr inbounds i8, ptr %.val.val.i, i64 -4
  %17 = load i32, ptr %16, align 4, !tbaa !109
  br i1 %15, label %_ZNK6vectorIjLb0EjE3getEjRKj.exit.i.i.us.i, label %.lr.ph.split.split.i

_ZNK6vectorIjLb0EjE3getEjRKj.exit.i.i.us.i:       ; preds = %.lr.ph.split.i, %_ZNK3euf9ac_plugin10ref_countsixEj.exit.i.us12.thread.i
  %.0135.us10.i = phi ptr [ %19, %_ZNK3euf9ac_plugin10ref_countsixEj.exit.i.us12.thread.i ], [ %.val, %.lr.ph.split.i ]
  %18 = load i32, ptr %.0135.us10.i, align 4, !tbaa !109
  %.not.i.i.i.us.i = icmp ult i32 %18, %17
  br i1 %.not.i.i.i.us.i, label %_ZNK3euf9ac_plugin10ref_countsixEj.exit.i.us12.i, label %_ZNK3euf9ac_plugin10ref_countsixEj.exit.i.us12.thread.i

_ZNK3euf9ac_plugin10ref_countsixEj.exit.i.us12.thread.i: ; preds = %_ZNK3euf9ac_plugin10ref_countsixEj.exit.i.us12.i, %_ZNK6vectorIjLb0EjE3getEjRKj.exit.i.i.us.i
  %19 = getelementptr inbounds nuw i8, ptr %.0135.us10.i, i64 4
  %.not.us11.i = icmp eq ptr %19, %9
  br i1 %.not.us11.i, label %"_Z6all_ofIN3euf9ac_plugin10ref_countsEZNS1_9is_subsetERKS2_RS2_RKNS1_10monomial_tEE3$_0EbRKT_RKT0_.exit", label %_ZNK6vectorIjLb0EjE3getEjRKj.exit.i.i.us.i

_ZNK3euf9ac_plugin10ref_countsixEj.exit.i.us12.i: ; preds = %_ZNK6vectorIjLb0EjE3getEjRKj.exit.i.i.us.i
  %20 = zext i32 %18 to i64
  %21 = getelementptr inbounds nuw i32, ptr %.val.val.i, i64 %20
  %.then.val.i.i.us.i = load i32, ptr %21, align 4, !tbaa !109
  %22 = icmp eq i32 %.then.val.i.i.us.i, 0
  br i1 %22, label %_ZNK3euf9ac_plugin10ref_countsixEj.exit.i.us12.thread.i, label %"_Z6all_ofIN3euf9ac_plugin10ref_countsEZNS1_9is_subsetERKS2_RS2_RKNS1_10monomial_tEE3$_0EbRKT_RKT0_.exit"

.lr.ph.split.split.i:                             ; preds = %.lr.ph.split.i
  %23 = load i32, ptr %14, align 4, !tbaa !109
  br label %_ZNK6vectorIjLb0EjE3getEjRKj.exit.i.i.i

_ZNK6vectorIjLb0EjE3getEjRKj.exit.i.i.i:          ; preds = %"_ZZN3euf9ac_plugin9is_subsetERKNS0_10ref_countsERS1_RKNS0_10monomial_tEENK3$_0clEj.exit.i", %.lr.ph.split.split.i
  %.0135.i = phi ptr [ %.val, %.lr.ph.split.split.i ], [ %31, %"_ZZN3euf9ac_plugin9is_subsetERKNS0_10ref_countsERS1_RKNS0_10monomial_tEENK3$_0clEj.exit.i" ]
  %24 = load i32, ptr %.0135.i, align 4, !tbaa !109
  %.not.i.i.i.i = icmp ult i32 %24, %17
  br i1 %.not.i.i.i.i, label %_ZNK6vectorIjLb0EjE3getEjRKj.exit.then.i.i.i, label %_ZNK3euf9ac_plugin10ref_countsixEj.exit.i.i

_ZNK6vectorIjLb0EjE3getEjRKj.exit.then.i.i.i:     ; preds = %_ZNK6vectorIjLb0EjE3getEjRKj.exit.i.i.i
  %25 = zext i32 %24 to i64
  %26 = getelementptr inbounds nuw i32, ptr %.val.val.i, i64 %25
  %.then.val.i.i.i = load i32, ptr %26, align 4, !tbaa !109
  br label %_ZNK3euf9ac_plugin10ref_countsixEj.exit.i.i

_ZNK3euf9ac_plugin10ref_countsixEj.exit.i.i:      ; preds = %_ZNK6vectorIjLb0EjE3getEjRKj.exit.then.i.i.i, %_ZNK6vectorIjLb0EjE3getEjRKj.exit.i.i.i
  %27 = phi i32 [ %.then.val.i.i.i, %_ZNK6vectorIjLb0EjE3getEjRKj.exit.then.i.i.i ], [ 0, %_ZNK6vectorIjLb0EjE3getEjRKj.exit.i.i.i ]
  %.not.i.i3.i.i = icmp ult i32 %24, %23
  br i1 %.not.i.i3.i.i, label %_ZNK6vectorIjLb0EjE3getEjRKj.exit.then.i4.i.i, label %"_ZZN3euf9ac_plugin9is_subsetERKNS0_10ref_countsERS1_RKNS0_10monomial_tEENK3$_0clEj.exit.i"

_ZNK6vectorIjLb0EjE3getEjRKj.exit.then.i4.i.i:    ; preds = %_ZNK3euf9ac_plugin10ref_countsixEj.exit.i.i
  %28 = zext i32 %24 to i64
  %29 = getelementptr inbounds nuw i32, ptr %13, i64 %28
  %.then.val.i5.i.i = load i32, ptr %29, align 4, !tbaa !109
  br label %"_ZZN3euf9ac_plugin9is_subsetERKNS0_10ref_countsERS1_RKNS0_10monomial_tEENK3$_0clEj.exit.i"

"_ZZN3euf9ac_plugin9is_subsetERKNS0_10ref_countsERS1_RKNS0_10monomial_tEENK3$_0clEj.exit.i": ; preds = %_ZNK6vectorIjLb0EjE3getEjRKj.exit.then.i4.i.i, %_ZNK3euf9ac_plugin10ref_countsixEj.exit.i.i
  %30 = phi i32 [ %.then.val.i5.i.i, %_ZNK6vectorIjLb0EjE3getEjRKj.exit.then.i4.i.i ], [ 0, %_ZNK3euf9ac_plugin10ref_countsixEj.exit.i.i ]
  %.not3.not.i.not = icmp ule i32 %27, %30
  %31 = getelementptr inbounds nuw i8, ptr %.0135.i, i64 4
  %.not.i = icmp ne ptr %31, %9
  %or.cond.not = select i1 %.not3.not.i.not, i1 %.not.i, i1 false
  br i1 %or.cond.not, label %_ZNK6vectorIjLb0EjE3getEjRKj.exit.i.i.i, label %"_Z6all_ofIN3euf9ac_plugin10ref_countsEZNS1_9is_subsetERKS2_RS2_RKNS1_10monomial_tEE3$_0EbRKT_RKT0_.exit"

"_Z6all_ofIN3euf9ac_plugin10ref_countsEZNS1_9is_subsetERKS2_RS2_RKNS1_10monomial_tEE3$_0EbRKT_RKT0_.exit": ; preds = %"_ZZN3euf9ac_plugin9is_subsetERKNS0_10ref_countsERS1_RKNS0_10monomial_tEENK3$_0clEj.exit.i", %_ZNK3euf9ac_plugin10ref_countsixEj.exit.i.us12.thread.i, %_ZNK3euf9ac_plugin10ref_countsixEj.exit.i.us12.i, %4, %_ZNK3euf9ac_plugin10ref_counts3endEv.exit.i, %.lr.ph.i
  %.not.lcssa.i = phi i1 [ true, %_ZNK3euf9ac_plugin10ref_counts3endEv.exit.i ], [ true, %4 ], [ true, %.lr.ph.i ], [ true, %_ZNK3euf9ac_plugin10ref_countsixEj.exit.i.us12.thread.i ], [ false, %_ZNK3euf9ac_plugin10ref_countsixEj.exit.i.us12.i ], [ %.not3.not.i.not, %"_ZZN3euf9ac_plugin9is_subsetERKNS0_10ref_countsERS1_RKNS0_10monomial_tEENK3$_0clEj.exit.i" ]
  ret i1 %.not.lcssa.i
}